target datalayout = "e-m:e-p270:32:32-p271:32:32-p272:64:64-i64:64-i128:128-f80:128-n8:16:32:64-S128"
target triple = "x86_64-pc-linux-gnu"

%struct.Abc_TtStore_t_ = type { i32, i32, i32, ptr }

; Function Attrs: nounwind uwtable
define void @Abc_TtStoreFree(ptr noundef %0, i32 noundef %1) #0 {
  %3 = alloca ptr, align 8
  %4 = alloca i32, align 4
  store ptr %0, ptr %3, align 8, !tbaa !20
  store i32 %1, ptr %4, align 4, !tbaa !10
  %5 = load i32, ptr %4, align 4, !tbaa !10
  %6 = icmp sge i32 %5, 0
  br i1 %6, label %7, label %26

7:                                                ; preds = %2
  %8 = load ptr, ptr %3, align 8, !tbaa !20
  %9 = getelementptr inbounds nuw %struct.Abc_TtStore_t_, ptr %8, i32 0, i32 3
  %10 = load ptr, ptr %9, align 8, !tbaa !27
  %11 = getelementptr inbounds ptr, ptr %10, i64 0
  %12 = load ptr, ptr %11, align 8, !tbaa !3
  %13 = icmp ne ptr %12, null
  br i1 %13, label %14, label %24

14:                                               ; preds = %7
  %15 = load ptr, ptr %3, align 8, !tbaa !20
  %16 = getelementptr inbounds nuw %struct.Abc_TtStore_t_, ptr %15, i32 0, i32 3
  %17 = load ptr, ptr %16, align 8, !tbaa !27
  %18 = getelementptr inbounds ptr, ptr %17, i64 0
  %19 = load ptr, ptr %18, align 8, !tbaa !3
  call void @free(ptr noundef %19) #12
  %20 = load ptr, ptr %3, align 8, !tbaa !20
  %21 = getelementptr inbounds nuw %struct.Abc_TtStore_t_, ptr %20, i32 0, i32 3
  %22 = load ptr, ptr %21, align 8, !tbaa !27
  %23 = getelementptr inbounds ptr, ptr %22, i64 0
  store ptr null, ptr %23, align 8, !tbaa !3
  br label %25

24:                                               ; preds = %7
  br label %25

25:                                               ; preds = %24, %14
  br label %26

26:                                               ; preds = %25, %2
  %27 = load ptr, ptr %3, align 8, !tbaa !20
  %28 = getelementptr inbounds nuw %struct.Abc_TtStore_t_, ptr %27, i32 0, i32 3
  %29 = load ptr, ptr %28, align 8, !tbaa !27
  %30 = icmp ne ptr %29, null
  br i1 %30, label %31, label %37

31:                                               ; preds = %26
  %32 = load ptr, ptr %3, align 8, !tbaa !20
  %33 = getelementptr inbounds nuw %struct.Abc_TtStore_t_, ptr %32, i32 0, i32 3
  %34 = load ptr, ptr %33, align 8, !tbaa !27
  call void @free(ptr noundef %34) #12
  %35 = load ptr, ptr %3, align 8, !tbaa !20
  %36 = getelementptr inbounds nuw %struct.Abc_TtStore_t_, ptr %35, i32 0, i32 3
  store ptr null, ptr %36, align 8, !tbaa !27
  br label %38

37:                                               ; preds = %26
  br label %38

38:                                               ; preds = %37, %31
  %39 = load ptr, ptr %3, align 8, !tbaa !20
  %40 = icmp ne ptr %39, null
  br i1 %40, label %41, label %43

41:                                               ; preds = %38
  %42 = load ptr, ptr %3, align 8, !tbaa !20
  call void @free(ptr noundef %42) #12
  store ptr null, ptr %3, align 8, !tbaa !20
  br label %44

43:                                               ; preds = %38
  br label %44

44:                                               ; preds = %43, %41
  ret void
}