; Function Attrs: mustprogress nounwind willreturn uwtable
define void @Abc_TtStoreFree(ptr noundef captures(none) %0, i32 noundef %1) local_unnamed_addr #6 {
  %3 = icmp sgt i32 %1, -1
  %4 = getelementptr inbounds nuw i8, ptr %0, i64 16
  %5 = load ptr, ptr %4, align 8, !tbaa !18
  br i1 %3, label %6, label %10

6:                                                ; preds = %2
  %7 = load ptr, ptr %5, align 8, !tbaa !19
  %.not = icmp eq ptr %7, null
  br i1 %.not, label %.thread, label %8

8:                                                ; preds = %6
  tail call void @free(ptr noundef nonnull %7) #21
  %9 = load ptr, ptr %4, align 8, !tbaa !18
  store ptr null, ptr %9, align 8, !tbaa !19
  br label %.thread

10:                                               ; preds = %2
  %.not10 = icmp eq ptr %5, null
  br i1 %.not10, label %12, label %.thread

.thread:                                          ; preds = %6, %8, %10
  %11 = phi ptr [ %5, %10 ], [ %5, %6 ], [ %9, %8 ]
  tail call void @free(ptr noundef nonnull %11) #21
  br label %12

12:                                               ; preds = %10, %.thread
  tail call void @free(ptr noundef nonnull %0) #21
  ret void
}